; ModuleID = '54/1727.cpp'
source_filename = "54/1727.cpp"
target datalayout = "e-m:e-p270:32:32-p271:32:32-p272:64:64-i64:64-f80:128-n8:16:32:64-S128"
target triple = "x86_64-pc-linux-gnu"

%"class.std::ios_base::Init" = type { i8 }
%"class.std::basic_istream" = type { i32 (...)**, i64, %"class.std::basic_ios" }
%"class.std::basic_ios" = type { %"class.std::ios_base", %"class.std::basic_ostream"*, i8, i8, %"class.std::basic_streambuf"*, %"class.std::ctype"*, %"class.std::num_put"*, %"class.std::num_get"* }
%"class.std::ios_base" = type { i32 (...)**, i64, i64, i32, i32, i32, %"struct.std::ios_base::_Callback_list"*, %"struct.std::ios_base::_Words", [8 x %"struct.std::ios_base::_Words"], i32, %"struct.std::ios_base::_Words"*, %"class.std::locale" }
%"struct.std::ios_base::_Callback_list" = type { %"struct.std::ios_base::_Callback_list"*, void (i32, %"class.std::ios_base"*, i32)*, i32, i32 }
%"struct.std::ios_base::_Words" = type { i8*, i64 }
%"class.std::locale" = type { %"class.std::locale::_Impl"* }
%"class.std::locale::_Impl" = type { i32, %"class.std::locale::facet"**, i64, %"class.std::locale::facet"**, i8** }
%"class.std::locale::facet" = type <{ i32 (...)**, i32, [4 x i8] }>
%"class.std::basic_ostream" = type { i32 (...)**, %"class.std::basic_ios" }
%"class.std::basic_streambuf" = type { i32 (...)**, i8*, i8*, i8*, i8*, i8*, i8*, %"class.std::locale" }
%"class.std::ctype" = type <{ %"class.std::locale::facet.base", [4 x i8], %struct.__locale_struct*, i8, [7 x i8], i32*, i32*, i16*, i8, [256 x i8], [256 x i8], i8, [6 x i8] }>
%"class.std::locale::facet.base" = type <{ i32 (...)**, i32 }>
%struct.__locale_struct = type { [13 x %struct.__locale_data*], i16*, i32*, i32*, [13 x i8*] }
%struct.__locale_data = type opaque
%"class.std::num_put" = type { %"class.std::locale::facet.base", [4 x i8] }
%"class.std::num_get" = type { %"class.std::locale::facet.base", [4 x i8] }

@_ZStL8__ioinit = internal global %"class.std::ios_base::Init" zeroinitializer, align 1
@__dso_handle = external hidden global i8
@p = dso_local global i32 1, align 4
@count1 = dso_local global i32 1, align 4
@sum = dso_local global i32 0, align 4
@_ZSt3cin = external dso_local global %"class.std::basic_istream", align 8
@_ZSt4cout = external dso_local global %"class.std::basic_ostream", align 8
@llvm.global_ctors = appending global [1 x { i32, void ()*, i8* }] [{ i32, void ()*, i8* } { i32 65535, void ()* @_GLOBAL__sub_I_1727.cpp, i8* null }]

; Function Attrs: noinline uwtable
define internal void @__cxx_global_var_init() #0 section ".text.startup" {
  call void @_ZNSt8ios_base4InitC1Ev(%"class.std::ios_base::Init"* @_ZStL8__ioinit)
  %1 = call i32 @__cxa_atexit(void (i8*)* bitcast (void (%"class.std::ios_base::Init"*)* @_ZNSt8ios_base4InitD1Ev to void (i8*)*), i8* getelementptr inbounds (%"class.std::ios_base::Init", %"class.std::ios_base::Init"* @_ZStL8__ioinit, i32 0, i32 0), i8* @__dso_handle) #3
  ret void
}

declare dso_local void @_ZNSt8ios_base4InitC1Ev(%"class.std::ios_base::Init"*) unnamed_addr #1

; Function Attrs: nounwind
declare dso_local void @_ZNSt8ios_base4InitD1Ev(%"class.std::ios_base::Init"*) unnamed_addr #2

; Function Attrs: nounwind
declare dso_local i32 @__cxa_atexit(void (i8*)*, i8*, i8*) #3

; Function Attrs: noinline norecurse uwtable
define dso_local i32 @main() #4 {
  %1 = alloca i32, align 4
  %2 = alloca i32, align 4
  %3 = alloca i32, align 4
  %4 = alloca i32, align 4
  store i32 0, i32* %1, align 4
  %5 = call dereferenceable(280) %"class.std::basic_istream"* @_ZNSirsERi(%"class.std::basic_istream"* @_ZSt3cin, i32* dereferenceable(4) %2)
  %6 = call dereferenceable(280) %"class.std::basic_istream"* @_ZNSirsERi(%"class.std::basic_istream"* %5, i32* dereferenceable(4) %3)
  br label %7

7:                                                ; preds = %11, %0
  %8 = load i32, i32* %2, align 4
  %9 = load i32, i32* %3, align 4
  %10 = call i32 @_Z3minii(i32 %8, i32 %9)
  store i32 %10, i32* %4, align 4
  br label %11

11:                                               ; preds = %7
  %12 = load i32, i32* %4, align 4
  %13 = icmp slt i32 %12, 0
  br i1 %13, label %7, label %14

14:                                               ; preds = %11
  %15 = load i32, i32* %4, align 4
  %16 = call dereferenceable(272) %"class.std::basic_ostream"* @_ZNSolsEi(%"class.std::basic_ostream"* @_ZSt4cout, i32 %15)
  %17 = call dereferenceable(272) %"class.std::basic_ostream"* @_ZNSolsEPFRSoS_E(%"class.std::basic_ostream"* %16, %"class.std::basic_ostream"* (%"class.std::basic_ostream"*)* @_ZSt4endlIcSt11char_traitsIcEERSt13basic_ostreamIT_T0_ES6_)
  %18 = call dereferenceable(280) %"class.std::basic_istream"* @_ZNSirsERi(%"class.std::basic_istream"* @_ZSt3cin, i32* dereferenceable(4) %4)
  ret i32 0
}

declare dso_local dereferenceable(280) %"class.std::basic_istream"* @_ZNSirsERi(%"class.std::basic_istream"*, i32* dereferenceable(4)) #1

; Function Attrs: noinline uwtable
define dso_local i32 @_Z3minii(i32 %0, i32 %1) #0 {
  %3 = alloca i32, align 4
  %4 = alloca i32, align 4
  %5 = alloca i32, align 4
  store i32 %0, i32* %4, align 4
  store i32 %1, i32* %5, align 4
  %6 = load i32, i32* @count1, align 4
  %7 = icmp eq i32 %6, 1
  br i1 %7, label %8, label %19

8:                                                ; preds = %2
  %9 = load i32, i32* %4, align 4
  %10 = load i32, i32* @p, align 4
  %11 = mul nsw i32 %9, %10
  %12 = load i32, i32* %5, align 4
  %13 = add nsw i32 %11, %12
  store i32 %13, i32* @sum, align 4
  %14 = load i32, i32* @count1, align 4
  %15 = add nsw i32 %14, 1
  store i32 %15, i32* @count1, align 4
  %16 = load i32, i32* %4, align 4
  %17 = load i32, i32* %5, align 4
  %18 = call i32 @_Z3minii(i32 %16, i32 %17)
  store i32 %18, i32* %3, align 4
  br label %49

19:                                               ; preds = %2
  %20 = load i32, i32* @count1, align 4
  %21 = load i32, i32* %4, align 4
  %22 = add nsw i32 %21, 1
  %23 = icmp eq i32 %20, %22
  br i1 %23, label %24, label %26

24:                                               ; preds = %19
  %25 = load i32, i32* @sum, align 4
  store i32 %25, i32* %3, align 4
  br label %49

26:                                               ; preds = %19
  %27 = load i32, i32* @sum, align 4
  %28 = load i32, i32* %4, align 4
  %29 = sub nsw i32 %28, 1
  %30 = srem i32 %27, %29
  %31 = icmp eq i32 %30, 0
  br i1 %31, label %32, label %46

32:                                               ; preds = %26
  %33 = load i32, i32* @count1, align 4
  %34 = add nsw i32 %33, 1
  store i32 %34, i32* @count1, align 4
  %35 = load i32, i32* @sum, align 4
  %36 = load i32, i32* %4, align 4
  %37 = mul nsw i32 %35, %36
  %38 = load i32, i32* %4, align 4
  %39 = sub nsw i32 %38, 1
  %40 = sdiv i32 %37, %39
  %41 = load i32, i32* %5, align 4
  %42 = add nsw i32 %40, %41
  store i32 %42, i32* @sum, align 4
  %43 = load i32, i32* %4, align 4
  %44 = load i32, i32* %5, align 4
  %45 = call i32 @_Z3minii(i32 %43, i32 %44)
  store i32 %45, i32* %3, align 4
  br label %49

46:                                               ; preds = %26
  store i32 1, i32* @count1, align 4
  %47 = load i32, i32* @p, align 4
  %48 = add nsw i32 %47, 1
  store i32 %48, i32* @p, align 4
  store i32 -1, i32* %3, align 4
  br label %49

49:                                               ; preds = %46, %32, %24, %8
  %50 = load i32, i32* %3, align 4
  ret i32 %50
}

declare dso_local dereferenceable(272) %"class.std::basic_ostream"* @_ZNSolsEi(%"class.std::basic_ostream"*, i32) #1

declare dso_local dereferenceable(272) %"class.std::basic_ostream"* @_ZNSolsEPFRSoS_E(%"class.std::basic_ostream"*, %"class.std::basic_ostream"* (%"class.std::basic_ostream"*)*) #1

declare dso_local dereferenceable(272) %"class.std::basic_ostream"* @_ZSt4endlIcSt11char_traitsIcEERSt13basic_ostreamIT_T0_ES6_(%"class.std::basic_ostream"* dereferenceable(272)) #1

; Function Attrs: noinline uwtable
define internal void @_GLOBAL__sub_I_1727.cpp() #0 section ".text.startup" {
  call void @__cxx_global_var_init()
  ret void
}


!llvm.module.flags = !{!0}
!llvm.ident = !{!1}

!0 = !{i32 1, !"wchar_size", i32 4}
!1 = !{!"clang version 10.0.0-4ubuntu1 "}
